target datalayout = "e-m:e-p270:32:32-p271:32:32-p272:64:64-i64:64-i128:128-f80:128-n8:16:32:64-S128"
target triple = "x86_64-pc-linux-gnu"

%struct.node_record = type { ptr, ptr, i16, i64, i64, ptr, ptr, ptr, i16, ptr, i16, i16, i32, i32, i64, ptr, i16, i16, ptr, ptr, ptr, ptr, ptr, i64, i64, ptr, ptr, ptr, ptr, i32, ptr, ptr, i64, i64, i32, ptr, i64, ptr, i32, i16, ptr, ptr, i32, ptr, i32, i8, ptr, i32, i16, i16, ptr, i16, i64, i16, i64, ptr, i64, i32, i16, i64, i16, ptr, i16, i64, ptr, i64, i16, i32, i16, ptr, ptr, ptr, i16, i32, i16, i16, i32, ptr, i16, i32 }

@.str.108 = private unnamed_addr constant [37 x i8] c"set_node_down unable to find node %s\00", align 1

; Function Attrs: nounwind uwtable
define dso_local void @set_node_down_ptr(ptr noundef %0, ptr noundef %1) #0 {
  %3 = alloca ptr, align 8
  %4 = alloca ptr, align 8
  %5 = alloca i64, align 8
  store ptr %0, ptr %3, align 8
  store ptr %1, ptr %4, align 8
  call void @llvm.lifetime.start.p0(i64 8, ptr %5) #10
  %6 = call i64 @time(ptr noundef null) #10
  store i64 %6, ptr %5, align 8
  %7 = load ptr, ptr %3, align 8
  %8 = load ptr, ptr %4, align 8
  %9 = load i64, ptr %5, align 8
  call void @set_node_reason(ptr noundef %7, ptr noundef %8, i64 noundef %9)
  %10 = load ptr, ptr %3, align 8
  %11 = load i64, ptr %5, align 8
  call void @_make_node_down(ptr noundef %10, i64 noundef %11)
  %12 = load ptr, ptr %3, align 8
  %13 = getelementptr inbounds nuw %struct.node_record, ptr %12, i32 0, i32 37
  %14 = load ptr, ptr %13, align 8
  %15 = call i32 @kill_running_job_by_node_name(ptr noundef %14)
  %16 = load ptr, ptr %3, align 8
  call void @_sync_bitmaps(ptr noundef %16, i32 noundef 0)
  call void @llvm.lifetime.end.p0(i64 8, ptr %5) #10
  ret void
}

; Function Attrs: nounwind uwtable
define dso_local void @set_node_down(ptr noundef %0, ptr noundef %1) #0 {
  %3 = alloca ptr, align 8
  %4 = alloca ptr, align 8
  %5 = alloca ptr, align 8
  %6 = alloca i32, align 4
  store ptr %0, ptr %3, align 8
  store ptr %1, ptr %4, align 8
  call void @llvm.lifetime.start.p0(i64 8, ptr %5) #10
  %7 = load ptr, ptr %3, align 8
  %8 = call ptr @find_node_record(ptr noundef %7)
  store ptr %8, ptr %5, align 8
  %9 = load ptr, ptr %5, align 8
  %10 = icmp eq ptr %9, null
  br i1 %10, label %11, label %14

11:                                               ; preds = %2
  %12 = load ptr, ptr %3, align 8
  %13 = call i32 (ptr, ...) @error(ptr noundef @.str.108, ptr noundef %12)
  store i32 1, ptr %6, align 4
  br label %17

14:                                               ; preds = %2
  %15 = load ptr, ptr %5, align 8
  %16 = load ptr, ptr %4, align 8
  call void @set_node_down_ptr(ptr noundef %15, ptr noundef %16)
  store i32 0, ptr %6, align 4
  br label %17

17:                                               ; preds = %14, %11
  call void @llvm.lifetime.end.p0(i64 8, ptr %5) #10
  %18 = load i32, ptr %6, align 4
  switch i32 %18, label %20 [
    i32 0, label %19
    i32 1, label %19
  ]

19:                                               ; preds = %17, %17
  ret void

20:                                               ; preds = %17
  unreachable
}