; Function Attrs: nounwind uwtable
define dso_local void @set_node_down(ptr noundef %0, ptr noundef %1) local_unnamed_addr #0 {
  %3 = tail call ptr @find_node_record(ptr noundef %0) #15
  %4 = icmp eq ptr %3, null
  br i1 %4, label %5, label %7

5:                                                ; preds = %2
  %6 = tail call i32 (ptr, ...) @error(ptr noundef nonnull @.str.108, ptr noundef %0) #15
  br label %12

7:                                                ; preds = %2
  %8 = tail call i64 @time(ptr noundef null) #15
  tail call void @set_node_reason(ptr noundef nonnull %3, ptr noundef %1, i64 noundef %8)
  tail call fastcc void @_make_node_down(ptr noundef nonnull %3, i64 noundef %8)
  %9 = getelementptr inbounds nuw i8, ptr %3, i64 272
  %10 = load ptr, ptr %9, align 8
  %11 = tail call i32 @kill_running_job_by_node_name(ptr noundef %10) #15
  tail call fastcc void @_sync_bitmaps(ptr noundef nonnull %3, i32 noundef 0)
  br label %12

12:                                               ; preds = %7, %5
  ret void
}